target datalayout = "e-m:e-p270:32:32-p271:32:32-p272:64:64-i64:64-i128:128-f80:128-n8:16:32:64-S128"
target triple = "x86_64-pc-linux-gnu"

; Function Attrs: mustprogress nounwind uwtable
define internal noundef i32 @_ZN4llvmL16StrCmpOptionNameEPKcS1_(ptr noundef %0, ptr noundef %1) #0 {
  %3 = alloca i32, align 4
  %4 = alloca ptr, align 8
  %5 = alloca ptr, align 8
  %6 = alloca ptr, align 8
  %7 = alloca ptr, align 8
  %8 = alloca i8, align 1
  %9 = alloca i8, align 1
  store ptr %0, ptr %4, align 8
  store ptr %1, ptr %5, align 8
  %10 = load ptr, ptr %4, align 8
  store ptr %10, ptr %6, align 8
  %11 = load ptr, ptr %5, align 8
  store ptr %11, ptr %7, align 8
  %12 = load ptr, ptr %4, align 8
  %13 = load i8, ptr %12, align 1
  %14 = sext i8 %13 to i32
  %15 = call i32 @tolower(i32 noundef %14) #9
  %16 = trunc i32 %15 to i8
  store i8 %16, ptr %8, align 1
  %17 = load ptr, ptr %5, align 8
  %18 = load i8, ptr %17, align 1
  %19 = sext i8 %18 to i32
  %20 = call i32 @tolower(i32 noundef %19) #9
  %21 = trunc i32 %20 to i8
  store i8 %21, ptr %9, align 1
  br label %22

22:                                               ; preds = %36, %2
  %23 = load i8, ptr %8, align 1
  %24 = sext i8 %23 to i32
  %25 = load i8, ptr %9, align 1
  %26 = sext i8 %25 to i32
  %27 = icmp eq i32 %24, %26
  br i1 %27, label %28, label %49

28:                                               ; preds = %22
  %29 = load i8, ptr %8, align 1
  %30 = sext i8 %29 to i32
  %31 = icmp eq i32 %30, 0
  br i1 %31, label %32, label %36

32:                                               ; preds = %28
  %33 = load ptr, ptr %4, align 8
  %34 = load ptr, ptr %5, align 8
  %35 = call i32 @strcmp(ptr noundef %33, ptr noundef %34) #9
  store i32 %35, ptr %3, align 4
  br label %66

36:                                               ; preds = %28
  %37 = load ptr, ptr %6, align 8
  %38 = getelementptr inbounds i8, ptr %37, i32 1
  store ptr %38, ptr %6, align 8
  %39 = load i8, ptr %38, align 1
  %40 = sext i8 %39 to i32
  %41 = call i32 @tolower(i32 noundef %40) #9
  %42 = trunc i32 %41 to i8
  store i8 %42, ptr %8, align 1
  %43 = load ptr, ptr %7, align 8
  %44 = getelementptr inbounds i8, ptr %43, i32 1
  store ptr %44, ptr %7, align 8
  %45 = load i8, ptr %44, align 1
  %46 = sext i8 %45 to i32
  %47 = call i32 @tolower(i32 noundef %46) #9
  %48 = trunc i32 %47 to i8
  store i8 %48, ptr %9, align 1
  br label %22, !llvm.loop !6

49:                                               ; preds = %22
  %50 = load i8, ptr %8, align 1
  %51 = sext i8 %50 to i32
  %52 = icmp eq i32 %51, 0
  br i1 %52, label %53, label %54

53:                                               ; preds = %49
  store i32 1, ptr %3, align 4
  br label %66

54:                                               ; preds = %49
  %55 = load i8, ptr %9, align 1
  %56 = sext i8 %55 to i32
  %57 = icmp eq i32 %56, 0
  br i1 %57, label %58, label %59

58:                                               ; preds = %54
  store i32 -1, ptr %3, align 4
  br label %66

59:                                               ; preds = %54
  %60 = load i8, ptr %8, align 1
  %61 = sext i8 %60 to i32
  %62 = load i8, ptr %9, align 1
  %63 = sext i8 %62 to i32
  %64 = icmp slt i32 %61, %63
  %65 = select i1 %64, i32 -1, i32 1
  store i32 %65, ptr %3, align 4
  br label %66

66:                                               ; preds = %59, %58, %53, %32
  %67 = load i32, ptr %3, align 4
  ret i32 %67
}