; Function Attrs: mustprogress nofree nounwind willreturn memory(read) uwtable
define internal fastcc noundef i32 @_ZN4llvmL16StrCmpOptionNameEPKcS1_(ptr noundef readonly captures(none) %0, ptr noundef readonly captures(none) %1) unnamed_addr #2 {
  %3 = load i8, ptr %0, align 1
  %4 = sext i8 %3 to i32
  %5 = tail call i32 @tolower(i32 noundef %4) #13
  %6 = load i8, ptr %1, align 1
  %7 = sext i8 %6 to i32
  %8 = tail call i32 @tolower(i32 noundef %7) #13
  %sext27 = shl i32 %5, 24
  %9 = ashr exact i32 %sext27, 24
  %sext2128 = shl i32 %8, 24
  %10 = ashr exact i32 %sext2128, 24
  %11 = icmp eq i32 %9, %10
  br i1 %11, label %.lr.ph, label %._crit_edge

.lr.ph:                                           ; preds = %2, %15
  %sext31 = phi i32 [ %sext, %15 ], [ %sext27, %2 ]
  %.01630 = phi ptr [ %20, %15 ], [ %1, %2 ]
  %.01729 = phi ptr [ %16, %15 ], [ %0, %2 ]
  %12 = icmp eq i32 %sext31, 0
  br i1 %12, label %13, label %15

13:                                               ; preds = %.lr.ph
  %14 = tail call i32 @strcmp(ptr noundef nonnull dereferenceable(1) %0, ptr noundef nonnull dereferenceable(1) %1) #13
  br label %33

15:                                               ; preds = %.lr.ph
  %16 = getelementptr inbounds nuw i8, ptr %.01729, i64 1
  %17 = load i8, ptr %16, align 1
  %18 = sext i8 %17 to i32
  %19 = tail call i32 @tolower(i32 noundef %18) #13
  %20 = getelementptr inbounds nuw i8, ptr %.01630, i64 1
  %21 = load i8, ptr %20, align 1
  %22 = sext i8 %21 to i32
  %23 = tail call i32 @tolower(i32 noundef %22) #13
  %sext = shl i32 %19, 24
  %24 = ashr exact i32 %sext, 24
  %sext21 = shl i32 %23, 24
  %25 = ashr exact i32 %sext21, 24
  %26 = icmp eq i32 %24, %25
  br i1 %26, label %.lr.ph, label %._crit_edge, !llvm.loop !19

._crit_edge:                                      ; preds = %15, %2
  %sext.lcssa = phi i32 [ %sext27, %2 ], [ %sext, %15 ]
  %.lcssa24 = phi i32 [ %9, %2 ], [ %24, %15 ]
  %sext21.lcssa = phi i32 [ %sext2128, %2 ], [ %sext21, %15 ]
  %.lcssa = phi i32 [ %10, %2 ], [ %25, %15 ]
  %27 = icmp eq i32 %sext.lcssa, 0
  br i1 %27, label %33, label %28

28:                                               ; preds = %._crit_edge
  %29 = icmp eq i32 %sext21.lcssa, 0
  br i1 %29, label %33, label %30

30:                                               ; preds = %28
  %31 = icmp slt i32 %.lcssa24, %.lcssa
  %32 = select i1 %31, i32 -1, i32 1
  br label %33

33:                                               ; preds = %28, %._crit_edge, %30, %13
  %.018 = phi i32 [ %14, %13 ], [ %32, %30 ], [ 1, %._crit_edge ], [ -1, %28 ]
  ret i32 %.018
}